                        LOC 6
000006  000000  ZERO:       Data 0               ; 6
000007  000001  ONE:        Data 1               ; 7
000010  000040  SPACE:      Data 32              ; 8  ' '
000011  000012  NL:         Data 10              ; 9  '\n'
000012  000060  ASC0:       Data 48              ; 10 '0'
000013  000310  PARBAS:     Data 200             ; 11 paragraph base (first sentence)
000014  000106  SCRBAS:     Data 70              ; 12 scratch base
000015  000764  JTBAS:      Data 500             ; 13 jump-table base
000016  000050  WORDBAS:    Data 40              ; 14 word buffer base
000017  001046  MSGWORDP:   Data 550             ; 15 "ENTER WORD: "
000020  001072  MSGFOUNDp:  Data 570             ; 16 "FOUND "
000021  001104  MSGNFp:     Data 580             ; 17 "NOT FOUND"
                        LOC 40
000050  000000          Data 0
000051  000000          Data 0
000052  000000          Data 0
000053  000000          Data 0
000054  000000          Data 0
000055  000000          Data 0
000056  000000          Data 0
000057  000000          Data 0
000060  000000          Data 0
000061  000000          Data 0
000062  000000          Data 0
000063  000000          Data 0
000064  000000          Data 0
000065  000000          Data 0
000066  000000          Data 0
000067  000000          Data 0
000070  000000          Data 0
000071  000000          Data 0
000072  000000          Data 0
000073  000000          Data 0
                        LOC 70
000106  000000          Data 0      ; +0
000107  000000          Data 0      ; +1
000110  000000          Data 0      ; +2
000111  000000          Data 0      ; +3
000112  000000          Data 0      ; +4
000113  000000          Data 0      ; +5
000114  000000          Data 0      ; +6
000115  000000          Data 0      ; +7
000116  000000          Data 0      ; +8
000117  000000          Data 0      ; +9
000120  000000          Data 0      ; +10
000121  000000          Data 0
000122  000000          Data 0
000123  000000          Data 0
000124  000000          Data 0
000125  000000          Data 0
000126  000000          Data 0
000127  000000          Data 0
000130  000000          Data 0
000131  000000          Data 0
000132  000000          Data 0
                        LOC 100
000144  102214  Start:  LDX 2,12,0              ; X2 <- SCRBAS (70)
000145  102315          LDX 3,13,0              ; X3 <- JTBAS (500)
000146  002006          LDR 0,0,6,0             ; R0 <- ZERO
000147  004200          STR 0,2,0,0             ; scratch+0 = sentence index = 0
000150  002200          LDR 0,2,0,0             ; R0 = sentence index
000151  016006          SIR 0,6                 ; R0 = index - 6
000152  036302          JGE 0,3,2,0             ; if index >= 6, done printing
000153  002200          LDR 0,2,0,0             ; R0 = sentence index
000154  020303          JZ 0,3,3,0              ; if 0 -> SENT0
000155  016001          SIR 0,1
000156  020304          JZ 0,3,4,0              ; if 1 -> SENT1
000157  016001          SIR 0,1
000160  020305          JZ 0,3,5,0              ; if 2 -> SENT2
000161  016001          SIR 0,1
000162  020306          JZ 0,3,6,0              ; if 3 -> SENT3
000163  016001          SIR 0,1
000164  020307          JZ 0,3,7,0              ; if 4 -> SENT4
000165  027400          JMA 3,8,0               ; else -> SENT5
000166  037000          LDA 0,SENT0,0
000167  004202          STR 0,2,2,0
000170  027501          JMA 3,9,1
000171  037100          LDA 0,SENT1,0
000172  004202          STR 0,2,2,0
000173  027501          JMA 3,9,1
000174  037200          LDA 0,SENT2,0
000175  004202          STR 0,2,2,0
000176  027501          JMA 3,9,1
000177  037300          LDA 0,SENT3,0
000200  004202          STR 0,2,2,0
000201  027501          JMA 3,9,1
000202  037400          LDA 0,SENT4,0
000203  004202          STR 0,2,2,0
000204  027501          JMA 3,9,1
000205  037500          LDA 0,SENT5,0
000206  004202          STR 0,2,2,0
000207  002202          LDR 0,2,2,0
000210  004212          STR 0,2,10,0           ; reuse PrintStr interface: scratch+10 = pointer
000211  031401          JSR 3,26,1             ; PrintStr
000212  002011          LDR 0,0,9,0            ; newline
000213  144001          OUT 0,1
000214  002200          LDR 0,2,0,0
000215  014001          AIR 0,1
000216  004200          STR 0,2,0,0
000217  027401          JMA 3,0,1              ; back to PrintAllLoop
000220  002017          LDR 0,0,15,0           ; MSGWORDP
000221  004212          STR 0,2,10,0
000222  031401          JSR 3,26,1             ; PrintStr
000223  031401          JSR 3,10,1             ; ReadWord
000224  002006          LDR 0,0,6,0
000225  004200          STR 0,2,0,0            ; sentence index = 0
000226  002200          LDR 0,2,0,0
000227  016006          SIR 0,6
000230  036353          JGE 0,3,11,1           ; if index >= 6 -> NotFound
000231  002200          LDR 0,2,0,0
000232  020343          JZ 0,3,3,1
000233  016001          SIR 0,1
000234  020344          JZ 0,3,4,1
000235  016001          SIR 0,1
000236  020345          JZ 0,3,5,1
000237  016001          SIR 0,1
000240  020346          JZ 0,3,6,1
000241  016001          SIR 0,1
000242  020347          JZ 0,3,7,1
000243  027401          JMA 3,8,1
000244  002006          LDR 0,0,6,0
000245  004201          STR 0,2,1,0
000246  002202          LDR 0,2,2,0
000247  004203          STR 0,2,3,0
000250  002243          LDR 0,2,3,1
000251  020354          JZ 0,3,12,1            ; end of sentence -> next sentence
000252  012010          SMR 0,0,8,0            ; char - SPACE
000253  022355          JNE 0,3,13,1           ; if not space, done skipping
000254  002203          LDR 0,2,3,0
000255  014001          AIR 0,1
000256  004203          STR 0,2,3,0
000257  027601          JMA 3,14,1
000260  002243          LDR 0,2,3,1
000261  020354          JZ 0,3,12,1
000262  031401          JSR 3,20,1             ; CompareWord
000263  020357          JZ 0,3,15,1            ; if equal -> Found
000264  031401          JSR 3,21,1             ; SkipWord
000265  002201          LDR 0,2,1,0
000266  014001          AIR 0,1
000267  004201          STR 0,2,1,0
000270  027401          JMA 3,16,1
000271  002200          LDR 0,2,0,0
000272  014001          AIR 0,1
000273  004200          STR 0,2,0,0
000274  027501          JMA 3,1,1              ; back to SentenceLoop
000275  002021          LDR 0,0,17,0           ; MSGNFp
000276  004212          STR 0,2,10,0
000277  031401          JSR 3,26,1             ; PrintStr
000300  000000          HLT
000301  002020          LDR 0,0,16,0           ; MSGFOUNDp
000302  004212          STR 0,2,10,0
000303  031401          JSR 3,26,1
000304  002016          LDR 0,0,14,0           ; WORDBAS
000305  004212          STR 0,2,10,0
000306  031401          JSR 3,26,1
000307  002011          LDR 0,0,9,0
000310  144001          OUT 0,1
000311  002200          LDR 0,2,0,0
000312  014001          AIR 0,1
000313  004210          STR 0,2,8,0            ; scratch+8 = value
000314  031401          JSR 3,24,1             ; PrintNum (from P1 style)
000315  002011          LDR 0,0,9,0
000316  144001          OUT 0,1
000317  002201          LDR 0,2,1,0
000320  014001          AIR 0,1
000321  004210          STR 0,2,8,0
000322  031401          JSR 3,24,1
000323  002011          LDR 0,0,9,0
000324  144001          OUT 0,1
000325  000000          HLT
000326  002006          LDR 0,0,6,0
000327  002416          LDR 1,0,14,0           ; WORDBAS
000330  004100          STR 0,1,0,0
000331  142000          IN 0,0
000332  004204          STR 0,2,4,0
000333  012010          SMR 0,0,8,0            ; char - SPACE
000334  020352          JZ 0,3,10,1            ; still skipping spaces
000335  002204          LDR 0,2,4,0
000336  012011          SMR 0,0,9,0            ; char - NL
000337  020352          JZ 0,3,10,1
000340  027501          JMA 3,17,1             ; first non-space char
000341  002416          LDR 1,0,14,0
000342  142000          IN 0,0
000343  004204          STR 0,2,4,0
000344  012010          SMR 0,0,8,0
000345  020362          JZ 0,3,18,1            ; space -> end
000346  002204          LDR 0,2,4,0
000347  012011          SMR 0,0,9,0
000350  020362          JZ 0,3,18,1            ; newline -> end
000351  002204          LDR 0,2,4,0
000352  004100          STR 0,1,0,0
000353  002100          LDR 0,1,0,0
000354  014001          AIR 0,1
000355  004100          STR 0,1,0,0
000356  027701          JMA 3,19,1
000357  002006          LDR 0,0,6,0
000360  004100          STR 0,1,0,0
000361  032000          RFS 0
000362  002416          LDR 1,0,14,0           ; R1 = WORDBAS
000363  003203          LDR 2,2,3,0            ; R2 = scan pointer
000364  002100          LDR 0,1,0,0            ; char from WORDBUF
000365  003643          LDR 3,2,3,1            ; char from sentence
000366  012300          SMR 0,3,0,0
000367  022364          JNE 0,3,20,1           ; mismatch
000370  020366          JZ 0,3,22,1            ; both zero -> match
000371  002100          LDR 4,1,0,0
000372  016001          AIR 4,1
000373  006100          STR 4,1,0,0
000374  002203          LDR 4,2,3,0
000375  016001          AIR 4,1
000376  006203          STR 4,2,3,0
000377  027501          JMA 3,21,1
000400  002007          LDR 0,0,7,0            ; ONE
000401  032000          RFS 0
000402  002006          LDR 0,0,6,0            ; ZERO
000403  032000          RFS 0
000404  002243          LDR 0,2,3,1
000405  020367          JZ 0,3,23,1
000406  012010          SMR 0,0,8,0
000407  020367          JZ 0,3,23,1
000410  002603          LDR 1,2,3,0
000411  014401          AIR 1,1
000412  004603          STR 1,2,3,0
000413  027501          JMA 3,21,1
000414  032000          RFS 0
000415  002210          LDR 0,2,8,0
000416  022370          JNE 0,3,24,1
000417  002012          LDR 0,0,10,0           ; '0'
000420  144001          OUT 0,1
000421  032000          RFS 0
000422  036371          JGE 0,3,25,1
000423  002013          LDR 0,0,11,0           ; ASCMIN from P1 if you want, or reuse
000424  144001          OUT 0,1
000425  002210          LDR 0,2,8,0
000426  172000          NOT 0
000427  014001          AIR 0,1
000430  004210          STR 0,2,8,0
000431  002006          LDR 0,0,6,0
000432  004211          STR 0,2,9,0
000433  002025          LDR 0,0,21,0           ; DIGBAS if you reuse P1 layout, or adjust
000434  004212          STR 0,2,10,0
000435  002210          LDR 0,2,8,0
000436  003010          LDR 2,0,8,0            ; TEN
000437  162200          DVD 0,2
000440  004210          STR 0,2,8,0
000441  004605          STR 1,2,5,0
000442  002012          LDR 0,0,10,0
000443  010205          AMR 0,2,5,0
000444  004252          STR 0,2,10,1
000445  002212          LDR 0,2,10,0
000446  014001          AIR 0,1
000447  004212          STR 0,2,10,0
000450  002211          LDR 0,2,9,0
000451  014001          AIR 0,1
000452  004211          STR 0,2,9,0
000453  002210          LDR 0,2,8,0
000454  022372          JNE 0,3,26,1
000455  002212          LDR 0,2,10,0
000456  016001          SIR 0,1
000457  004212          STR 0,2,10,0
000460  002252          LDR 0,2,10,1
000461  144001          OUT 0,1
000462  002211          LDR 0,2,9,0
000463  016001          SIR 0,1
000464  004211          STR 0,2,9,0
000465  022373          JNE 0,3,27,1
000466  032000          RFS 0
000467  002212          LDR 0,2,10,0
000470  004203          STR 0,2,3,0
000471  002243          LDR 0,2,3,1
000472  020374          JZ 0,3,28,1
000473  144001          OUT 0,1
000474  002203          LDR 0,2,3,0
000475  014001          AIR 0,1
000476  004203          STR 0,2,3,0
000477  027501          JMA 3,29,1
000500  032000          RFS 0
                        LOC 200
000310  000124  SENT0:  Data 84,104,105,115,32,105,115,32,115,101,110,116,101,110,99,101,32,49,46,0
000311  000124  SENT1:  Data 84,104,105,115,32,105,115,32,115,101,110,116,101,110,99,101,32,50,46,0
000312  000124  SENT2:  Data 84,104,105,115,32,105,115,32,115,101,110,116,101,110,99,101,32,51,46,0
000313  000124  SENT3:  Data 84,104,105,115,32,105,115,32,115,101,110,116,101,110,99,101,32,52,46,0
000314  000124  SENT4:  Data 84,104,105,115,32,105,115,32,115,101,110,116,101,110,99,101,32,53,46,0
000315  000124  SENT5:  Data 84,104,105,115,32,105,115,32,115,101,110,116,101,110,99,101,32,54,46,0
                        LOC 550
001046  000105  MSGWORD:    Data 69,78,84,69,82,32,87,79,82,68,58,32,0      ; "ENTER WORD: "
001047  000106  MSGFOUND:   Data 70,79,85,78,68,32,0                        ; "FOUND "
001050  000116  MSGNF:      Data 78,79,84,32,70,79,85,78,68,10,0            ; "NOT FOUND\n"
                        LOC 500
000764  000150  JT0:    Data PrintAllLoop      ; 0
000765  000234  JT1:    Data SentenceLoop      ; 1
000766  000223  JT2:    Data AfterPrintAll     ; 2
000767  000167  JT3:    Data PrintS0           ; 3
000770  000172  JT4:    Data PrintS1           ; 4
000771  000175  JT5:    Data PrintS2           ; 5
000772  000200  JT6:    Data PrintS3           ; 6
000773  000203  JT7:    Data PrintS4           ; 7
000774  000206  JT8:    Data PrintS5           ; 8
000775  000210  JT9:    Data DoPrintSentence   ; 9
000776  000353  JT10:   Data ReadWord          ; 10
000777  000316  JT11:   Data NotFound          ; 11
001000  000311  JT12:   Data NextSentence      ; 12
001001  000262  JT13:   Data SkipSpaces        ; 13
001002  000272  JT14:   Data AfterSkipSpaces   ; 14
001003  000261  JT15:   Data WordLoop          ; 15
001004  000311  JT16:   Data NextSentence      ; 16
001005  000367  JT17:   Data ReadWordBody      ; 17
001006  000406  JT18:   Data ReadWordDone      ; 18
001007  000371  JT19:   Data ReadWordLoop      ; 19
001010  000411  JT20:   Data CompareWord       ; 20
001011  000433  JT21:   Data SkipWord          ; 21
001012  000431  JT22:   Data CmpOK             ; 22
001013  000443  JT23:   Data SkipWordDone      ; 23
001014  000444  JT24:   Data PrintNum          ; 24
001015  000451  JT25:   Data PrintNonZero2     ; 25
001016  000516  JT26:   Data PrintStr          ; 26
001017  000504  JT27:   Data PrintOut2         ; 27
001020  000527  JT28:   Data PrintStrDone      ; 28
001021  000520  JT29:   Data PrintStrLoop      ; 29
001022  000322  JT30:   Data Found             ; 30
001023  000144  JT31:   Data Start             ; 31
