                        LOC     6
000006  000024  COUNT:      DATA    20
000007  000026  ARRPTR:     DATA    ARR0
000010  000000  USERVAL:    DATA    0
000011  000000  BESTVAL:    DATA    0
000012  077777  BESTDIFF:   DATA    32767
000013  000000  TEMP:       DATA    0
000014  000000  SIGN:       DATA    0
000015  000000  CHAR:       DATA    0
000016  000000  VALUE:      DATA    0
000017  000000  DIGIT:      DATA    0
000020  000012  TEN:        DATA    10
000021  177777  NEGONE:     DATA    -1
000022  000060  ASCII_ZERO: DATA    48
000023  000071  ASCII_NINE: DATA    57
000024  000055  ASCII_MINUS: DATA   45
000025  000012  ASCII_NL:   DATA    10
000026  000000  ARR0:       DATA    0
000027  000000  ARR1:       DATA    0
000030  000000  ARR2:       DATA    0
000031  000000  ARR3:       DATA    0
000032  000000  ARR4:       DATA    0
000033  000000  ARR5:       DATA    0
000034  000000  ARR6:       DATA    0
000035  000000  ARR7:       DATA    0
000036  000000  ARR8:       DATA    0
000037  000000  ARR9:       DATA    0
000040  000000  ARR10:      DATA    0
000041  000000  ARR11:      DATA    0
000042  000000  ARR12:      DATA    0
000043  000000  ARR13:      DATA    0
000044  000000  ARR14:      DATA    0
000045  000000  ARR15:      DATA    0
000046  000000  ARR16:      DATA    0
000047  000000  ARR17:      DATA    0
000050  000000  ARR18:      DATA    0
000051  000000  ARR19:      DATA    0
000052  000000  DIGBUF0:    DATA 0
000053  000000  DIGBUF1:    DATA 0
000054  000000  DIGBUF2:    DATA 0
000055  000000  DIGBUF3:    DATA 0
000056  000000  DIGBUF4:    DATA 0
000057  000000  DIGBUF5:    DATA 0
                        LOC     40
000050  003006          LDR     2,0,COUNT
000051  102107          LDX     1,ARRPTR
000052  035700          JSR     3,READINT      ; returns integer in R0
000053  004100          STR     0,1,0          ; store into *ARRPTR
000054  007500          LDA     3,1,0          ; bump ARRPTR via R3 (scratch)
000055  015401          AIR     3,1
000056  104307          STX     3,ARRPTR
000057  102107          LDX     1,ARRPTR
000060  035053          SOB     2,0,READ20_LOOP
000061  003006          LDR     2,0,COUNT
000062  007426          LDA     3,0,ARR0
000063  104307          STX     3,ARRPTR
000064  102107          LDX     1,ARRPTR
000065  002100          LDR     0,1,0
000066  033600          JSR     3,PRINTINT
000067  007500          LDA     3,1,0
000070  015401          AIR     3,1
000071  104307          STX     3,ARRPTR
000072  102107          LDX     1,ARRPTR
000073  035066          SOB     2,0,PRINT20_LOOP
000074  035700          JSR     3,READINT
000075  004010          STR     0,0,USERVAL
000076  002006          LDR     0,0,COUNT
000077  004013          STR     0,0,TEMP       ; TEMP = remaining count
000100  007026          LDA     2,0,ARR0
000101  104207          STX     2,ARRPTR
000102  102107          LDX     1,ARRPTR
000103  002500          LDR     1,1,0         ; R1 = current array value
000104  002010          LDR     0,0,USERVAL
000105  012100          SMR     0,1,0         ; R0 = user - current
000106  035400          JSR     3,ABS         ; R0 = abs difference
000107  004016          STR     0,0,VALUE
000110  003016          LDR     2,0,VALUE
000111  013012          SMR     2,0,BESTDIFF   ; R2 = VALUE - BESTDIFF
000112  037121          JGE     2,0,NO_UPDATE  ; if VALUE >= BESTDIFF, skip
000113  002016          LDR     0,0,VALUE
000114  004012          STR     0,0,BESTDIFF
000115  002100          LDR     0,1,0
000116  004011          STR     0,0,BESTVAL
000117  007100          LDA     2,1,0
000120  015001          AIR     2,1
000121  104207          STX     2,ARRPTR
000122  102107          LDX     1,ARRPTR
000123  002013          LDR     0,0,TEMP
000124  016001          SIR     0,1
000125  004013          STR     0,0,TEMP
000126  036104          JGE     0,0,FIND_LOOP
000127  002010          LDR     0,0,USERVAL
000130  033600          JSR     3,PRINTINT
000131  002011          LDR     0,0,BESTVAL
000132  033600          JSR     3,PRINTINT
000133  000000          HLT
000134  142400          IN      1,0
000135  032000          RFS     0
000136  036144          JGE     0,0,ABS_RET
000137  002421          LDR     1,0,NEGONE
000140  160100          MLT     0,1
000141  032000          RFS     0
000142  002420          LDR     1,0,TEN
000143  160100          MLT     0,1
000144  032000          RFS     0
000145  002425          LDR     1,0,ASCII_NL
000146  144400          OUT     1,0
000147  032000          RFS     0
000150  005413          STR     3,0,TEMP        ; save return address in TEMP
000151  006000          LDA     0,0,0
000152  004016          STR     0,0,VALUE
000153  006000          LDA     0,0,0
000154  014001          AIR     0,1
000155  004014          STR     0,0,SIGN
000156  033600          JSR     3,READCHAR
000157  004415          STR     1,0,CHAR
000160  003015          LDR     2,0,CHAR
000161  013025          SMR     2,0,ASCII_NL
000162  021215          JZ      2,0,READINT_DONE
000163  003015          LDR     2,0,CHAR
000164  013024          SMR     2,0,ASCII_MINUS
000165  021212          JZ      2,0,SET_NEG
000166  003015          LDR     2,0,CHAR
000167  013022          SMR     2,0,ASCII_ZERO
000170  037175          JGE     2,0,CHECK_DIGIT
000171  076400          JMA     READINT_LOOP
000172  003015          LDR     2,0,CHAR
000173  013023          SMR     2,0,ASCII_NINE
000174  037161          JGE     2,0,READINT_LOOP
000175  002015          LDR     0,0,CHAR
000176  012022          SMR     0,0,ASCII_ZERO
000177  004017          STR     0,0,DIGIT
000200  002016          LDR     0,0,VALUE
000201  035500          JSR     3,MULT10
000202  004016          STR     0,0,VALUE
000203  002016          LDR     0,0,VALUE
000204  010017          AMR     0,0,DIGIT
000205  004016          STR     0,0,VALUE
000206  076400          JMA     READINT_LOOP
000207  002021          LDR     0,0,NEGONE
000210  004014          STR     0,0,SIGN
000211  076400          JMA     READINT_LOOP
000212  002016          LDR     0,0,VALUE
000213  002414          LDR     1,0,SIGN
000214  160100          MLT     0,1
000215  003413          LDR     3,0,TEMP
000216  032000          RFS     0
000217  005413          STR     3,0,TEMP        ; save return address
000220  036231          JGE     0,0,PI_POS
000221  002424          LDR     1,0,ASCII_MINUS
000222  144400          OUT     1,0
000223  002421          LDR     1,0,NEGONE
000224  160100          MLT     0,1
000225  022236          JNE     0,0,PI_CONVERT
000226  002422          LDR     1,0,ASCII_ZERO
000227  144400          OUT     1,0
000230  166400          JMA     PI_DONE
000231  006400          LDA     1,0,0
000232  004413          STR     1,0,TEMP        ; TEMP = digit count
000233  002420          LDR     1,0,TEN
000234  162100          DVD     0,1             ; quotient in R0, remainder in R1
000235  004417          STR     1,0,DIGIT       ; remainder
000236  002417          LDR     1,0,DIGIT
000237  010422          AMR     1,0,ASCII_ZERO
000240  003013          LDR     2,0,TEMP
000241  021262          JZ      2,0,STORE0
000242  017001          SIR     2,1
000243  021264          JZ      2,0,STORE1
000244  017001          SIR     2,1
000245  021266          JZ      2,0,STORE2
000246  017001          SIR     2,1
000247  021270          JZ      2,0,STORE3
000250  017001          SIR     2,1
000251  021272          JZ      2,0,STORE4
000252  136000          JMA     STORE5
000253  004452  STORE0: STR 1,0,DIGBUF0
000254  136400          JMA AFTER_STORE
000255  004453  STORE1: STR 1,0,DIGBUF1
000256  136400          JMA AFTER_STORE
000257  004454  STORE2: STR 1,0,DIGBUF2
000260  136400          JMA AFTER_STORE
000261  004455  STORE3: STR 1,0,DIGBUF3
000262  136400          JMA AFTER_STORE
000263  004456  STORE4: STR 1,0,DIGBUF4
000264  136400          JMA AFTER_STORE
000265  004457  STORE5: STR 1,0,DIGBUF5
000266  002413          LDR     1,0,TEMP
000267  014401          AIR     1,1
000270  004413          STR     1,0,TEMP
000271  022240          JNE     0,0,PI_DIV_LOOP
000272  002413          LDR     1,0,TEMP
000273  016401          SIR     1,1
000274  004413          STR     1,0,TEMP
000275  003013          LDR     2,0,TEMP
000276  021321          JZ      2,0,PRINT0
000277  017001          SIR     2,1
000300  021323          JZ      2,0,PRINT1
000301  017001          SIR     2,1
000302  021325          JZ      2,0,PRINT2
000303  017001          SIR     2,1
000304  021327          JZ      2,0,PRINT3
000305  017001          SIR     2,1
000306  021331          JZ      2,0,PRINT4
000307  177400          JMA     PRINT5
000310  002452  PRINT0: LDR 1,0,DIGBUF0
000311  176000          JMA DO_PRINT
000312  002453  PRINT1: LDR 1,0,DIGBUF1
000313  176000          JMA DO_PRINT
000314  002454  PRINT2: LDR 1,0,DIGBUF2
000315  176000          JMA DO_PRINT
000316  002455  PRINT3: LDR 1,0,DIGBUF3
000317  176000          JMA DO_PRINT
000320  002456  PRINT4: LDR 1,0,DIGBUF4
000321  176000          JMA DO_PRINT
000322  002457  PRINT5: LDR 1,0,DIGBUF5
000323  144400          OUT     1,0
000324  002413          LDR     1,0,TEMP
000325  022703          JNE     1,0,PI_PRINT_LOOP
000326  166400          JMA     PI_DONE
000327  002425          LDR     1,0,ASCII_NL
000330  144400          OUT     1,0
000331  003413          LDR     3,0,TEMP
000332  032000          RFS     0
