                        LOC     6
000006  000024  COUNT:      DATA    20
000007  000026  ARRPTR:     DATA    ARR0
000010  000000  USERVAL:    DATA    0
000011  000000  BESTVAL:    DATA    0
000012  077777  BESTDIFF:   DATA    32767
000013  000000  TEMP:       DATA    0
000014  000000  SIGN:       DATA    0
000015  000000  CHAR:       DATA    0
000016  000000  VALUE:      DATA    0
000017  000000  DIGIT:      DATA    0
000020  000012  TEN:        DATA    10
000021  177777  NEGONE:     DATA    -1
000022  000060  ASCII_ZERO: DATA    48
000023  000071  ASCII_NINE: DATA    57
000024  000055  ASCII_MINUS: DATA   45
000025  000012  ASCII_NL:   DATA    10
000026  000000  ARR0:       DATA    0
000027  000000  ARR1:       DATA    0
000030  000000  ARR2:       DATA    0
000031  000000  ARR3:       DATA    0
000032  000000  ARR4:       DATA    0
000033  000000  ARR5:       DATA    0
000034  000000  ARR6:       DATA    0
000035  000000  ARR7:       DATA    0
000036  000000  ARR8:       DATA    0
000037  000000  ARR9:       DATA    0
000040  000000  ARR10:      DATA    0
000041  000000  ARR11:      DATA    0
000042  000000  ARR12:      DATA    0
000043  000000  ARR13:      DATA    0
000044  000000  ARR14:      DATA    0
000045  000000  ARR15:      DATA    0
000046  000000  ARR16:      DATA    0
000047  000000  ARR17:      DATA    0
000050  000000  ARR18:      DATA    0
000051  000000  ARR19:      DATA    0
000052  000000  DIGBUF0:    DATA 0
000053  000000  DIGBUF1:    DATA 0
000054  000000  DIGBUF2:    DATA 0
000055  000000  DIGBUF3:    DATA 0
000056  000000  DIGBUF4:    DATA 0
000057  000000  DIGBUF5:    DATA 0
                        LOC     40
000050  003006          LDR     2,0,COUNT
000051  102107          LDX     1,ARRPTR
000052  035700          JSR     3,READINT      ; returns integer in R0
000053  004100          STR     0,1,0          ; store into *ARRPTR
000054  007500          LDA     3,1,0          ; bump ARRPTR via R3 (scratch)
000055  015401          AIR     3,1
000056  104307          STX     3,ARRPTR
000057  102107          LDX     1,ARRPTR
000060  102140  ; LDX 1,32 (base addr for: SOB     2,0,READ20_LOOP)
000061  035113          SOB     2,0,READ20_LOOP
000062  003006          LDR     2,0,COUNT
000063  007426          LDA     3,0,ARR0
000064  104307          STX     3,ARRPTR
000065  102107          LDX     1,ARRPTR
000066  002100          LDR     0,1,0
000067  033600          JSR     3,PRINTINT
000070  007500          LDA     3,1,0
000071  015401          AIR     3,1
000072  104307          STX     3,ARRPTR
000073  102107          LDX     1,ARRPTR
000074  102140  ; LDX 1,32 (base addr for: SOB     2,0,PRINT20_LOOP)
000075  035126          SOB     2,0,PRINT20_LOOP
000076  035700          JSR     3,READINT
000077  004010          STR     0,0,USERVAL
000100  002006          LDR     0,0,COUNT
000101  004013          STR     0,0,TEMP       ; TEMP = remaining count
000102  007026          LDA     2,0,ARR0
000103  104207          STX     2,ARRPTR
000104  102107          LDX     1,ARRPTR
000105  002500          LDR     1,1,0         ; R1 = current array value
000106  002010          LDR     0,0,USERVAL
000107  012100          SMR     0,1,0         ; R0 = user - current
000110  035400          JSR     3,ABS         ; R0 = abs difference
000111  004016          STR     0,0,VALUE
000112  003016          LDR     2,0,VALUE
000113  013012          SMR     2,0,BESTDIFF   ; R2 = VALUE - BESTDIFF
000114  102100  ; LDX 1,64 (base addr for: JGE     2,0,NO_UPDATE  ; if VALUE >= BESTDIFF, skip)
000115  037121          JGE     2,0,NO_UPDATE  ; if VALUE >= BESTDIFF, skip
000116  002016          LDR     0,0,VALUE
000117  004012          STR     0,0,BESTDIFF
000120  002100          LDR     0,1,0
000121  004011          STR     0,0,BESTVAL
000122  007100          LDA     2,1,0
000123  015001          AIR     2,1
000124  104207          STX     2,ARRPTR
000125  102107          LDX     1,ARRPTR
000126  002013          LDR     0,0,TEMP
000127  016001          SIR     0,1
000130  004013          STR     0,0,TEMP
000131  102100  ; LDX 1,64 (base addr for: JGE     0,0,FIND_LOOP)
000132  036104          JGE     0,0,FIND_LOOP
000133  002010          LDR     0,0,USERVAL
000134  033600          JSR     3,PRINTINT
000135  002011          LDR     0,0,BESTVAL
000136  033600          JSR     3,PRINTINT
000137  000000          HLT
000140  142400          IN      1,0
000141  032000          RFS     0
000142  102140  ; LDX 1,96 (base addr for: JGE     0,0,ABS_RET)
000143  036104          JGE     0,0,ABS_RET
000144  002421          LDR     1,0,NEGONE
000145  160100          MLT     0,1
000146  032000          RFS     0
000147  002420          LDR     1,0,TEN
000150  160100          MLT     0,1
000151  032000          RFS     0
000152  002425          LDR     1,0,ASCII_NL
000153  144400          OUT     1,0
000154  032000          RFS     0
000155  005413          STR     3,0,TEMP        ; save return address in TEMP
000156  006000          LDA     0,0,0
000157  004016          STR     0,0,VALUE
000160  006000          LDA     0,0,0
000161  014001          AIR     0,1
000162  004014          STR     0,0,SIGN
000163  033600          JSR     3,READCHAR
000164  004415          STR     1,0,CHAR
000165  003015          LDR     2,0,CHAR
000166  013025          SMR     2,0,ASCII_NL
000167  102300  ; LDX 1,128 (base addr for: JZ      2,0,READINT_DONE)
000170  021115          JZ      2,0,READINT_DONE
000171  003015          LDR     2,0,CHAR
000172  013024          SMR     2,0,ASCII_MINUS
000173  102300  ; LDX 1,128 (base addr for: JZ      2,0,SET_NEG)
000174  021112          JZ      2,0,SET_NEG
000175  003015          LDR     2,0,CHAR
000176  013022          SMR     2,0,ASCII_ZERO
000177  102140  ; LDX 1,96 (base addr for: JGE     2,0,CHECK_DIGIT)
000200  037135          JGE     2,0,CHECK_DIGIT
000201  076400          JMA     READINT_LOOP
000202  003015          LDR     2,0,CHAR
000203  013023          SMR     2,0,ASCII_NINE
000204  102140  ; LDX 1,96 (base addr for: JGE     2,0,READINT_LOOP)
000205  037121          JGE     2,0,READINT_LOOP
000206  002015          LDR     0,0,CHAR
000207  012022          SMR     0,0,ASCII_ZERO
000210  004017          STR     0,0,DIGIT
000211  002016          LDR     0,0,VALUE
000212  035500          JSR     3,MULT10
000213  004016          STR     0,0,VALUE
000214  002016          LDR     0,0,VALUE
000215  010017          AMR     0,0,DIGIT
000216  004016          STR     0,0,VALUE
000217  076400          JMA     READINT_LOOP
000220  002021          LDR     0,0,NEGONE
000221  004014          STR     0,0,SIGN
000222  076400          JMA     READINT_LOOP
000223  002016          LDR     0,0,VALUE
000224  002414          LDR     1,0,SIGN
000225  160100          MLT     0,1
000226  003413          LDR     3,0,TEMP
000227  032000          RFS     0
000230  005413          STR     3,0,TEMP        ; save return address
000231  102300  ; LDX 1,128 (base addr for: JGE     0,0,PI_POS)
000232  036131          JGE     0,0,PI_POS
000233  002424          LDR     1,0,ASCII_MINUS
000234  144400          OUT     1,0
000235  002421          LDR     1,0,NEGONE
000236  160100          MLT     0,1
000237  102300  ; LDX 1,128 (base addr for: JNE     0,0,PI_CONVERT)
000240  022136          JNE     0,0,PI_CONVERT
000241  002422          LDR     1,0,ASCII_ZERO
000242  144400          OUT     1,0
000243  166400          JMA     PI_DONE
000244  006400          LDA     1,0,0
000245  004413          STR     1,0,TEMP        ; TEMP = digit count
000246  002420          LDR     1,0,TEN
000247  162100          DVD     0,1             ; quotient in R0, remainder in R1
000250  004417          STR     1,0,DIGIT       ; remainder
000251  002417          LDR     1,0,DIGIT
000252  010422          AMR     1,0,ASCII_ZERO
000253  003013          LDR     2,0,TEMP
000254  102340  ; LDX 1,160 (base addr for: JZ      2,0,STORE0)
000255  021122          JZ      2,0,STORE0
000256  017001          SIR     2,1
000257  102340  ; LDX 1,160 (base addr for: JZ      2,0,STORE1)
000260  021124          JZ      2,0,STORE1
000261  017001          SIR     2,1
000262  102340  ; LDX 1,160 (base addr for: JZ      2,0,STORE2)
000263  021126          JZ      2,0,STORE2
000264  017001          SIR     2,1
000265  102340  ; LDX 1,160 (base addr for: JZ      2,0,STORE3)
000266  021130          JZ      2,0,STORE3
000267  017001          SIR     2,1
000270  102340  ; LDX 1,160 (base addr for: JZ      2,0,STORE4)
000271  021132          JZ      2,0,STORE4
000272  136000          JMA     STORE5
000273  102140  ; LDX 1,32 (base addr for: STORE0: STR 1,0,DIGBUF0)
000274  004512  STORE0: STR 1,0,DIGBUF0
000275  136400          JMA AFTER_STORE
000276  102140  ; LDX 1,32 (base addr for: STORE1: STR 1,0,DIGBUF1)
000277  004513  STORE1: STR 1,0,DIGBUF1
000300  136400          JMA AFTER_STORE
000301  102140  ; LDX 1,32 (base addr for: STORE2: STR 1,0,DIGBUF2)
000302  004514  STORE2: STR 1,0,DIGBUF2
000303  136400          JMA AFTER_STORE
000304  102140  ; LDX 1,32 (base addr for: STORE3: STR 1,0,DIGBUF3)
000305  004515  STORE3: STR 1,0,DIGBUF3
000306  136400          JMA AFTER_STORE
000307  102140  ; LDX 1,32 (base addr for: STORE4: STR 1,0,DIGBUF4)
000310  004516  STORE4: STR 1,0,DIGBUF4
000311  136400          JMA AFTER_STORE
000312  102140  ; LDX 1,32 (base addr for: STORE5: STR 1,0,DIGBUF5)
000313  004517  STORE5: STR 1,0,DIGBUF5
000314  002413          LDR     1,0,TEMP
000315  014401          AIR     1,1
000316  004413          STR     1,0,TEMP
000317  102340  ; LDX 1,160 (base addr for: JNE     0,0,PI_DIV_LOOP)
000320  022100          JNE     0,0,PI_DIV_LOOP
000321  002413          LDR     1,0,TEMP
000322  016401          SIR     1,1
000323  004413          STR     1,0,TEMP
000324  003013          LDR     2,0,TEMP
000325  102300  ; LDX 1,192 (base addr for: JZ      2,0,PRINT0)
000326  021121          JZ      2,0,PRINT0
000327  017001          SIR     2,1
000330  102300  ; LDX 1,192 (base addr for: JZ      2,0,PRINT1)
000331  021123          JZ      2,0,PRINT1
000332  017001          SIR     2,1
000333  102300  ; LDX 1,192 (base addr for: JZ      2,0,PRINT2)
000334  021125          JZ      2,0,PRINT2
000335  017001          SIR     2,1
000336  102300  ; LDX 1,192 (base addr for: JZ      2,0,PRINT3)
000337  021127          JZ      2,0,PRINT3
000340  017001          SIR     2,1
000341  102300  ; LDX 1,192 (base addr for: JZ      2,0,PRINT4)
000342  021131          JZ      2,0,PRINT4
000343  177400          JMA     PRINT5
000344  102140  ; LDX 1,32 (base addr for: PRINT0: LDR 1,0,DIGBUF0)
000345  002512  PRINT0: LDR 1,0,DIGBUF0
000346  176000          JMA DO_PRINT
000347  102140  ; LDX 1,32 (base addr for: PRINT1: LDR 1,0,DIGBUF1)
000350  002513  PRINT1: LDR 1,0,DIGBUF1
000351  176000          JMA DO_PRINT
000352  102140  ; LDX 1,32 (base addr for: PRINT2: LDR 1,0,DIGBUF2)
000353  002514  PRINT2: LDR 1,0,DIGBUF2
000354  176000          JMA DO_PRINT
000355  102140  ; LDX 1,32 (base addr for: PRINT3: LDR 1,0,DIGBUF3)
000356  002515  PRINT3: LDR 1,0,DIGBUF3
000357  176000          JMA DO_PRINT
000360  102140  ; LDX 1,32 (base addr for: PRINT4: LDR 1,0,DIGBUF4)
000361  002516  PRINT4: LDR 1,0,DIGBUF4
000362  176000          JMA DO_PRINT
000363  102140  ; LDX 1,32 (base addr for: PRINT5: LDR 1,0,DIGBUF5)
000364  002517  PRINT5: LDR 1,0,DIGBUF5
000365  144400          OUT     1,0
000366  002413          LDR     1,0,TEMP
000367  102300  ; LDX 1,192 (base addr for: JNE     1,0,PI_PRINT_LOOP)
000370  022503          JNE     1,0,PI_PRINT_LOOP
000371  166400          JMA     PI_DONE
000372  002425          LDR     1,0,ASCII_NL
000373  144400          OUT     1,0
000374  003413          LDR     3,0,TEMP
000375  032000          RFS     0
